target datalayout = "e-m:e-p270:32:32-p271:32:32-p272:64:64-i64:64-i128:128-f80:128-n8:16:32:64-S128"
target triple = "x86_64-pc-linux-gnu"

%struct.stbds_array_header = type { i64, i64, ptr, i64 }
%struct.stbds_hash_index = type { ptr, i64, i64, i64, i64, i64, i64, i64, i64, %struct.stbds_string_arena, ptr }
%struct.stbds_string_arena = type { ptr, i64, i8, i8 }
%struct.stbds_string_block = type { ptr, [8 x i8] }

; Function Attrs: nounwind uwtable
define void @stbds_strreset(ptr noundef %0) #0 {
  %2 = alloca ptr, align 8
  %3 = alloca ptr, align 8
  %4 = alloca ptr, align 8
  store ptr %0, ptr %2, align 8, !tbaa !49
  call void @llvm.lifetime.start.p0(i64 8, ptr %3) #7
  call void @llvm.lifetime.start.p0(i64 8, ptr %4) #7
  %5 = load ptr, ptr %2, align 8, !tbaa !49
  %6 = getelementptr inbounds nuw %struct.stbds_string_arena, ptr %5, i32 0, i32 0
  %7 = load ptr, ptr %6, align 8, !tbaa !51
  store ptr %7, ptr %3, align 8, !tbaa !29
  br label %8

8:                                                ; preds = %11, %1
  %9 = load ptr, ptr %3, align 8, !tbaa !29
  %10 = icmp ne ptr %9, null
  br i1 %10, label %11, label %17

11:                                               ; preds = %8
  %12 = load ptr, ptr %3, align 8, !tbaa !29
  %13 = getelementptr inbounds nuw %struct.stbds_string_block, ptr %12, i32 0, i32 0
  %14 = load ptr, ptr %13, align 8, !tbaa !52
  store ptr %14, ptr %4, align 8, !tbaa !29
  %15 = load ptr, ptr %3, align 8, !tbaa !29
  call void @free(ptr noundef %15) #7
  %16 = load ptr, ptr %4, align 8, !tbaa !29
  store ptr %16, ptr %3, align 8, !tbaa !29
  br label %8, !llvm.loop !54

17:                                               ; preds = %8
  %18 = load ptr, ptr %2, align 8, !tbaa !49
  call void @llvm.memset.p0.i64(ptr align 8 %18, i8 0, i64 24, i1 false)
  call void @llvm.lifetime.end.p0(i64 8, ptr %4) #7
  call void @llvm.lifetime.end.p0(i64 8, ptr %3) #7
  ret void
}

; Function Attrs: nounwind uwtable
define void @stbds_hmfree_func(ptr noundef %0, i64 noundef %1) #0 {
  %3 = alloca ptr, align 8
  %4 = alloca i64, align 8
  %5 = alloca i64, align 8
  store ptr %0, ptr %3, align 8, !tbaa !3
  store i64 %1, ptr %4, align 8, !tbaa !7
  %6 = load ptr, ptr %3, align 8, !tbaa !3
  %7 = icmp eq ptr %6, null
  br i1 %7, label %8, label %9

8:                                                ; preds = %2
  br label %57

9:                                                ; preds = %2
  %10 = load ptr, ptr %3, align 8, !tbaa !3
  %11 = getelementptr inbounds %struct.stbds_array_header, ptr %10, i64 -1
  %12 = getelementptr inbounds nuw %struct.stbds_array_header, ptr %11, i32 0, i32 2
  %13 = load ptr, ptr %12, align 8, !tbaa !12
  %14 = icmp ne ptr %13, null
  br i1 %14, label %15, label %50

15:                                               ; preds = %9
  %16 = load ptr, ptr %3, align 8, !tbaa !3
  %17 = getelementptr inbounds %struct.stbds_array_header, ptr %16, i64 -1
  %18 = getelementptr inbounds nuw %struct.stbds_array_header, ptr %17, i32 0, i32 2
  %19 = load ptr, ptr %18, align 8, !tbaa !12
  %20 = getelementptr inbounds nuw %struct.stbds_hash_index, ptr %19, i32 0, i32 9
  %21 = getelementptr inbounds nuw %struct.stbds_string_arena, ptr %20, i32 0, i32 3
  %22 = load i8, ptr %21, align 1, !tbaa !47
  %23 = zext i8 %22 to i32
  %24 = icmp eq i32 %23, 2
  br i1 %24, label %25, label %44

25:                                               ; preds = %15
  call void @llvm.lifetime.start.p0(i64 8, ptr %5) #7
  store i64 1, ptr %5, align 8, !tbaa !7
  br label %26

26:                                               ; preds = %40, %25
  %27 = load i64, ptr %5, align 8, !tbaa !7
  %28 = load ptr, ptr %3, align 8, !tbaa !3
  %29 = getelementptr inbounds %struct.stbds_array_header, ptr %28, i64 -1
  %30 = getelementptr inbounds nuw %struct.stbds_array_header, ptr %29, i32 0, i32 0
  %31 = load i64, ptr %30, align 8, !tbaa !9
  %32 = icmp ult i64 %27, %31
  br i1 %32, label %33, label %43

33:                                               ; preds = %26
  %34 = load ptr, ptr %3, align 8, !tbaa !3
  %35 = load i64, ptr %4, align 8, !tbaa !7
  %36 = load i64, ptr %5, align 8, !tbaa !7
  %37 = mul i64 %35, %36
  %38 = getelementptr inbounds nuw i8, ptr %34, i64 %37
  %39 = load ptr, ptr %38, align 8, !tbaa !39
  call void @free(ptr noundef %39) #7
  br label %40

40:                                               ; preds = %33
  %41 = load i64, ptr %5, align 8, !tbaa !7
  %42 = add i64 %41, 1
  store i64 %42, ptr %5, align 8, !tbaa !7
  br label %26, !llvm.loop !48

43:                                               ; preds = %26
  call void @llvm.lifetime.end.p0(i64 8, ptr %5) #7
  br label %44

44:                                               ; preds = %43, %15
  %45 = load ptr, ptr %3, align 8, !tbaa !3
  %46 = getelementptr inbounds %struct.stbds_array_header, ptr %45, i64 -1
  %47 = getelementptr inbounds nuw %struct.stbds_array_header, ptr %46, i32 0, i32 2
  %48 = load ptr, ptr %47, align 8, !tbaa !12
  %49 = getelementptr inbounds nuw %struct.stbds_hash_index, ptr %48, i32 0, i32 9
  call void @stbds_strreset(ptr noundef %49)
  br label %50

50:                                               ; preds = %44, %9
  %51 = load ptr, ptr %3, align 8, !tbaa !3
  %52 = getelementptr inbounds %struct.stbds_array_header, ptr %51, i64 -1
  %53 = getelementptr inbounds nuw %struct.stbds_array_header, ptr %52, i32 0, i32 2
  %54 = load ptr, ptr %53, align 8, !tbaa !12
  call void @free(ptr noundef %54) #7
  %55 = load ptr, ptr %3, align 8, !tbaa !3
  %56 = getelementptr inbounds %struct.stbds_array_header, ptr %55, i64 -1
  call void @free(ptr noundef %56) #7
  br label %57

57:                                               ; preds = %50, %8
  ret void
}