; Function Attrs: nounwind uwtable
define void @stbds_hmfree_func(ptr noundef captures(address_is_null) %0, i64 noundef %1) local_unnamed_addr #13 {
  %3 = icmp eq ptr %0, null
  br i1 %3, label %26, label %4

4:                                                ; preds = %2
  %5 = getelementptr inbounds i8, ptr %0, i64 -32
  %6 = getelementptr inbounds i8, ptr %0, i64 -16
  %7 = load ptr, ptr %6, align 8, !tbaa !37
  %.not = icmp eq ptr %7, null
  br i1 %.not, label %24, label %8

8:                                                ; preds = %4
  %9 = getelementptr inbounds nuw i8, ptr %7, i64 89
  %10 = load i8, ptr %9, align 1, !tbaa !38
  %11 = icmp eq i8 %10, 2
  br i1 %11, label %.preheader, label %.loopexit

.preheader:                                       ; preds = %8
  %12 = load i64, ptr %5, align 8, !tbaa !3
  %13 = icmp ugt i64 %12, 1
  br i1 %13, label %.lr.ph, label %.loopexit

.lr.ph:                                           ; preds = %.preheader, %.lr.ph
  %.013 = phi i64 [ %17, %.lr.ph ], [ 1, %.preheader ]
  %14 = mul i64 %.013, %1
  %15 = getelementptr inbounds nuw i8, ptr %0, i64 %14
  %16 = load ptr, ptr %15, align 8, !tbaa !36
  tail call void @free(ptr noundef %16) #21
  %17 = add nuw i64 %.013, 1
  %18 = load i64, ptr %5, align 8, !tbaa !3
  %19 = icmp ult i64 %17, %18
  br i1 %19, label %.lr.ph, label %.loopexit.loopexit, !llvm.loop !39

.loopexit.loopexit:                               ; preds = %.lr.ph
  %.pre = load ptr, ptr %6, align 8, !tbaa !37
  br label %.loopexit

.loopexit:                                        ; preds = %.loopexit.loopexit, %.preheader, %8
  %20 = phi ptr [ %.pre, %.loopexit.loopexit ], [ %7, %.preheader ], [ %7, %8 ]
  %21 = getelementptr inbounds nuw i8, ptr %20, i64 72
  %22 = load ptr, ptr %21, align 8, !tbaa !40
  %.not6.i = icmp eq ptr %22, null
  br i1 %.not6.i, label %stbds_strreset.exit, label %.lr.ph.i

.lr.ph.i:                                         ; preds = %.loopexit, %.lr.ph.i
  %.07.i = phi ptr [ %23, %.lr.ph.i ], [ %22, %.loopexit ]
  %23 = load ptr, ptr %.07.i, align 8, !tbaa !41
  tail call void @free(ptr noundef nonnull %.07.i) #21
  %.not.i = icmp eq ptr %23, null
  br i1 %.not.i, label %stbds_strreset.exit, label %.lr.ph.i, !llvm.loop !43

stbds_strreset.exit:                              ; preds = %.lr.ph.i, %.loopexit
  tail call void @llvm.memset.p0.i64(ptr noundef nonnull align 8 dereferenceable(24) %21, i8 0, i64 24, i1 false)
  %.pre14 = load ptr, ptr %6, align 8, !tbaa !37
  br label %24

24:                                               ; preds = %stbds_strreset.exit, %4
  %25 = phi ptr [ %.pre14, %stbds_strreset.exit ], [ null, %4 ]
  tail call void @free(ptr noundef %25) #21
  tail call void @free(ptr noundef nonnull %5) #21
  br label %26

26:                                               ; preds = %2, %24
  ret void
}